; ModuleID = '15/1800.c'
source_filename = "15/1800.c"
target datalayout = "e-m:e-p270:32:32-p271:32:32-p272:64:64-i64:64-f80:128-n8:16:32:64-S128"
target triple = "x86_64-pc-linux-gnu"

@.str = private unnamed_addr constant [3 x i8] c"%d\00", align 1
@.str.1 = private unnamed_addr constant [4 x i8] c"%d\0A\00", align 1

; Function Attrs: noinline nounwind uwtable
define dso_local i32 @main() #0 {
  %1 = alloca i32, align 4
  %2 = alloca i32, align 4
  %3 = alloca i32, align 4
  %4 = alloca i32, align 4
  %5 = alloca [1000 x [1000 x i32]], align 16
  %6 = alloca [2 x i32], align 4
  %7 = alloca [2 x i32], align 4
  %8 = alloca i32, align 4
  %9 = alloca i32, align 4
  store i32 0, i32* %1, align 4
  %10 = call i32 (i8*, ...) @__isoc99_scanf(i8* getelementptr inbounds ([3 x i8], [3 x i8]* @.str, i64 0, i64 0), i32* %2)
  store i32 0, i32* %3, align 4
  br label %11

11:                                               ; preds = %32, %0
  %12 = load i32, i32* %3, align 4
  %13 = load i32, i32* %2, align 4
  %14 = icmp slt i32 %12, %13
  br i1 %14, label %15, label %35

15:                                               ; preds = %11
  store i32 0, i32* %4, align 4
  br label %16

16:                                               ; preds = %28, %15
  %17 = load i32, i32* %4, align 4
  %18 = load i32, i32* %2, align 4
  %19 = icmp slt i32 %17, %18
  br i1 %19, label %20, label %31

20:                                               ; preds = %16
  %21 = load i32, i32* %3, align 4
  %22 = sext i32 %21 to i64
  %23 = getelementptr inbounds [1000 x [1000 x i32]], [1000 x [1000 x i32]]* %5, i64 0, i64 %22
  %24 = load i32, i32* %4, align 4
  %25 = sext i32 %24 to i64
  %26 = getelementptr inbounds [1000 x i32], [1000 x i32]* %23, i64 0, i64 %25
  %27 = call i32 (i8*, ...) @__isoc99_scanf(i8* getelementptr inbounds ([3 x i8], [3 x i8]* @.str, i64 0, i64 0), i32* %26)
  br label %28

28:                                               ; preds = %20
  %29 = load i32, i32* %4, align 4
  %30 = add nsw i32 %29, 1
  store i32 %30, i32* %4, align 4
  br label %16

31:                                               ; preds = %16
  br label %32

32:                                               ; preds = %31
  %33 = load i32, i32* %3, align 4
  %34 = add nsw i32 %33, 1
  store i32 %34, i32* %3, align 4
  br label %11

35:                                               ; preds = %11
  store i32 -1, i32* %9, align 4
  store i32 0, i32* %3, align 4
  br label %36

36:                                               ; preds = %85, %35
  %37 = load i32, i32* %3, align 4
  %38 = load i32, i32* %2, align 4
  %39 = icmp slt i32 %37, %38
  br i1 %39, label %40, label %88

40:                                               ; preds = %36
  store i32 0, i32* %4, align 4
  br label %41

41:                                               ; preds = %81, %40
  %42 = load i32, i32* %4, align 4
  %43 = load i32, i32* %2, align 4
  %44 = icmp slt i32 %42, %43
  br i1 %44, label %45, label %84

45:                                               ; preds = %41
  %46 = load i32, i32* %3, align 4
  %47 = sext i32 %46 to i64
  %48 = getelementptr inbounds [1000 x [1000 x i32]], [1000 x [1000 x i32]]* %5, i64 0, i64 %47
  %49 = load i32, i32* %4, align 4
  %50 = sext i32 %49 to i64
  %51 = getelementptr inbounds [1000 x i32], [1000 x i32]* %48, i64 0, i64 %50
  %52 = load i32, i32* %51, align 4
  %53 = icmp eq i32 %52, 0
  br i1 %53, label %54, label %64

54:                                               ; preds = %45
  %55 = load i32, i32* %9, align 4
  %56 = icmp eq i32 %55, -1
  br i1 %56, label %57, label %64

57:                                               ; preds = %54
  %58 = load i32, i32* %3, align 4
  %59 = add nsw i32 %58, 1
  %60 = getelementptr inbounds [2 x i32], [2 x i32]* %6, i64 0, i64 0
  store i32 %59, i32* %60, align 4
  %61 = load i32, i32* %4, align 4
  %62 = add nsw i32 %61, 1
  %63 = getelementptr inbounds [2 x i32], [2 x i32]* %7, i64 0, i64 0
  store i32 %62, i32* %63, align 4
  store i32 1, i32* %9, align 4
  br label %64

64:                                               ; preds = %57, %54, %45
  %65 = load i32, i32* %3, align 4
  %66 = sext i32 %65 to i64
  %67 = getelementptr inbounds [1000 x [1000 x i32]], [1000 x [1000 x i32]]* %5, i64 0, i64 %66
  %68 = load i32, i32* %4, align 4
  %69 = sext i32 %68 to i64
  %70 = getelementptr inbounds [1000 x i32], [1000 x i32]* %67, i64 0, i64 %69
  %71 = load i32, i32* %70, align 4
  %72 = icmp eq i32 %71, 0
  br i1 %72, label %73, label %80

73:                                               ; preds = %64
  %74 = load i32, i32* %3, align 4
  %75 = sub nsw i32 %74, 1
  %76 = getelementptr inbounds [2 x i32], [2 x i32]* %6, i64 0, i64 1
  store i32 %75, i32* %76, align 4
  %77 = load i32, i32* %4, align 4
  %78 = sub nsw i32 %77, 1
  %79 = getelementptr inbounds [2 x i32], [2 x i32]* %7, i64 0, i64 1
  store i32 %78, i32* %79, align 4
  br label %80

80:                                               ; preds = %73, %64
  br label %81

81:                                               ; preds = %80
  %82 = load i32, i32* %4, align 4
  %83 = add nsw i32 %82, 1
  store i32 %83, i32* %4, align 4
  br label %41

84:                                               ; preds = %41
  br label %85

85:                                               ; preds = %84
  %86 = load i32, i32* %3, align 4
  %87 = add nsw i32 %86, 1
  store i32 %87, i32* %3, align 4
  br label %36

88:                                               ; preds = %36
  %89 = getelementptr inbounds [2 x i32], [2 x i32]* %6, i64 0, i64 1
  %90 = load i32, i32* %89, align 4
  %91 = getelementptr inbounds [2 x i32], [2 x i32]* %6, i64 0, i64 0
  %92 = load i32, i32* %91, align 4
  %93 = sub nsw i32 %90, %92
  %94 = add nsw i32 %93, 1
  %95 = getelementptr inbounds [2 x i32], [2 x i32]* %7, i64 0, i64 1
  %96 = load i32, i32* %95, align 4
  %97 = getelementptr inbounds [2 x i32], [2 x i32]* %7, i64 0, i64 0
  %98 = load i32, i32* %97, align 4
  %99 = sub nsw i32 %96, %98
  %100 = add nsw i32 %99, 1
  %101 = mul nsw i32 %94, %100
  store i32 %101, i32* %8, align 4
  %102 = load i32, i32* %8, align 4
  %103 = call i32 (i8*, ...) @printf(i8* getelementptr inbounds ([4 x i8], [4 x i8]* @.str.1, i64 0, i64 0), i32 %102)
  ret i32 0
}

declare dso_local i32 @__isoc99_scanf(i8*, ...) #1

declare dso_local i32 @printf(i8*, ...) #1


!llvm.module.flags = !{!0}
!llvm.ident = !{!1}

!0 = !{i32 1, !"wchar_size", i32 4}
!1 = !{!"clang version 10.0.0-4ubuntu1 "}
